; Function Attrs: mustprogress uwtable
define dso_local noundef i64 @_ZN11VHashSha25612digestUInt64Ev(ptr noundef nonnull align 8 dereferenceable(80) %0) local_unnamed_addr #6 align 2 personality ptr @__gxx_personality_v0 {
  %2 = alloca %"class.std::__cxx11::basic_string", align 8
  call void @llvm.lifetime.start.p0(i64 32, ptr nonnull %2) #31
  call void @_ZN11VHashSha25612digestBinaryB5cxx11Ev(ptr dead_on_unwind nonnull writable sret(%"class.std::__cxx11::basic_string") align 8 %2, ptr noundef nonnull align 8 dereferenceable(80) %0)
  %3 = load ptr, ptr %2, align 8, !tbaa !19
  br label %12

4:                                                ; preds = %12
  %5 = getelementptr inbounds nuw i8, ptr %2, i64 16
  %6 = icmp eq ptr %3, %5
  br i1 %6, label %_ZNKSt7__cxx1112basic_stringIcSt11char_traitsIcESaIcEE11_M_is_localEv.exit.thread.i.i, label %_ZNKSt7__cxx1112basic_stringIcSt11char_traitsIcESaIcEE11_M_is_localEv.exit.i.i

_ZNKSt7__cxx1112basic_stringIcSt11char_traitsIcESaIcEE11_M_is_localEv.exit.thread.i.i: ; preds = %4
  %7 = getelementptr inbounds nuw i8, ptr %2, i64 8
  %8 = load i64, ptr %7, align 8, !tbaa !24
  %9 = icmp ult i64 %8, 16
  call void @llvm.assume(i1 %9)
  br label %_ZNSt7__cxx1112basic_stringIcSt11char_traitsIcESaIcEED2Ev.exit

_ZNKSt7__cxx1112basic_stringIcSt11char_traitsIcESaIcEE11_M_is_localEv.exit.i.i: ; preds = %4
  %10 = load i64, ptr %5, align 8, !tbaa !13
  %11 = add i64 %10, 1
  call void @_ZdlPvm(ptr noundef nonnull %3, i64 noundef %11) #33
  br label %_ZNSt7__cxx1112basic_stringIcSt11char_traitsIcESaIcEED2Ev.exit

_ZNSt7__cxx1112basic_stringIcSt11char_traitsIcESaIcEED2Ev.exit: ; preds = %_ZNKSt7__cxx1112basic_stringIcSt11char_traitsIcESaIcEE11_M_is_localEv.exit.thread.i.i, %_ZNKSt7__cxx1112basic_stringIcSt11char_traitsIcESaIcEE11_M_is_localEv.exit.i.i
  call void @llvm.lifetime.end.p0(i64 32, ptr nonnull %2) #31
  ret i64 %17

12:                                               ; preds = %1, %12
  %.09 = phi i64 [ 0, %1 ], [ %17, %12 ]
  %.078 = phi i64 [ 0, %1 ], [ %18, %12 ]
  %13 = getelementptr inbounds nuw i8, ptr %3, i64 %.078
  %14 = load i8, ptr %13, align 1, !tbaa !13
  %15 = shl i64 %.09, 8
  %16 = zext i8 %14 to i64
  %17 = or disjoint i64 %15, %16
  %18 = add nuw nsw i64 %.078, 1
  %exitcond.not = icmp eq i64 %18, 8
  br i1 %exitcond.not, label %4, label %12, !llvm.loop !64
}